target datalayout = "e-m:e-p270:32:32-p271:32:32-p272:64:64-i64:64-i128:128-f80:128-n8:16:32:64-S128"
target triple = "x86_64-pc-linux-gnu"

%struct._SPI_connection = type { i64, ptr, i32, %struct.slist_head, ptr, ptr, ptr, i32, ptr, i8, i8, i64, ptr, i32 }
%struct.slist_head = type { %struct.slist_node }
%struct.slist_node = type { ptr }
%struct._SPI_plan = type { i32, i8, i8, ptr, ptr, i32, i32, i32, ptr, ptr, ptr }
%struct.ForEachState = type { ptr, i32 }
%struct.List = type { i32, i32, i32, ptr, [0 x %union.ListCell] }
%union.ListCell = type { ptr }

@_SPI_current = internal global ptr null, align 8
@CurrentMemoryContext = external global ptr, align 8
@.str.72 = private unnamed_addr constant [9 x i8] c"SPI Plan\00", align 1

; Function Attrs: inlinehint nounwind uwtable
define internal ptr @MemoryContextSwitchTo(ptr noundef %0) #4 {
  %2 = alloca ptr, align 8
  %3 = alloca ptr, align 8
  store ptr %0, ptr %2, align 8
  call void @llvm.lifetime.start.p0(i64 8, ptr %3) #9
  %4 = load ptr, ptr @CurrentMemoryContext, align 8
  store ptr %4, ptr %3, align 8
  %5 = load ptr, ptr %2, align 8
  store ptr %5, ptr @CurrentMemoryContext, align 8
  %6 = load ptr, ptr %3, align 8
  call void @llvm.lifetime.end.p0(i64 8, ptr %3) #9
  ret ptr %6
}

; Function Attrs: nounwind uwtable
define internal ptr @_SPI_make_plan_non_temp(ptr noundef %0) #0 {
  %2 = alloca ptr, align 8
  %3 = alloca ptr, align 8
  %4 = alloca ptr, align 8
  %5 = alloca ptr, align 8
  %6 = alloca ptr, align 8
  %7 = alloca ptr, align 8
  %8 = alloca i32, align 4
  %9 = alloca %struct.ForEachState, align 8
  %10 = alloca ptr, align 8
  store ptr %0, ptr %2, align 8
  call void @llvm.lifetime.start.p0(i64 8, ptr %3) #9
  call void @llvm.lifetime.start.p0(i64 8, ptr %4) #9
  %11 = load ptr, ptr @_SPI_current, align 8
  %12 = getelementptr inbounds nuw %struct._SPI_connection, ptr %11, i32 0, i32 4
  %13 = load ptr, ptr %12, align 8
  store ptr %13, ptr %4, align 8
  call void @llvm.lifetime.start.p0(i64 8, ptr %5) #9
  call void @llvm.lifetime.start.p0(i64 8, ptr %6) #9
  call void @llvm.lifetime.start.p0(i64 8, ptr %7) #9
  br label %14

14:                                               ; preds = %1
  br label %15

15:                                               ; preds = %14
  br label %16

16:                                               ; preds = %15
  store i32 1, ptr %8, align 4
  %17 = load ptr, ptr %4, align 8
  %18 = call ptr @AllocSetContextCreateInternal(ptr noundef %17, ptr noundef @.str.72, i64 noundef 0, i64 noundef 1024, i64 noundef 8192)
  store ptr %18, ptr %5, align 8
  %19 = load ptr, ptr %5, align 8
  %20 = call ptr @MemoryContextSwitchTo(ptr noundef %19)
  store ptr %20, ptr %6, align 8
  %21 = call ptr @palloc0(i64 noundef 64)
  store ptr %21, ptr %3, align 8
  %22 = load ptr, ptr %3, align 8
  %23 = getelementptr inbounds nuw %struct._SPI_plan, ptr %22, i32 0, i32 0
  store i32 569278163, ptr %23, align 8
  %24 = load ptr, ptr %5, align 8
  %25 = load ptr, ptr %3, align 8
  %26 = getelementptr inbounds nuw %struct._SPI_plan, ptr %25, i32 0, i32 4
  store ptr %24, ptr %26, align 8
  %27 = load ptr, ptr %2, align 8
  %28 = getelementptr inbounds nuw %struct._SPI_plan, ptr %27, i32 0, i32 5
  %29 = load i32, ptr %28, align 8
  %30 = load ptr, ptr %3, align 8
  %31 = getelementptr inbounds nuw %struct._SPI_plan, ptr %30, i32 0, i32 5
  store i32 %29, ptr %31, align 8
  %32 = load ptr, ptr %2, align 8
  %33 = getelementptr inbounds nuw %struct._SPI_plan, ptr %32, i32 0, i32 6
  %34 = load i32, ptr %33, align 4
  %35 = load ptr, ptr %3, align 8
  %36 = getelementptr inbounds nuw %struct._SPI_plan, ptr %35, i32 0, i32 6
  store i32 %34, ptr %36, align 4
  %37 = load ptr, ptr %2, align 8
  %38 = getelementptr inbounds nuw %struct._SPI_plan, ptr %37, i32 0, i32 7
  %39 = load i32, ptr %38, align 8
  %40 = load ptr, ptr %3, align 8
  %41 = getelementptr inbounds nuw %struct._SPI_plan, ptr %40, i32 0, i32 7
  store i32 %39, ptr %41, align 8
  %42 = load ptr, ptr %2, align 8
  %43 = getelementptr inbounds nuw %struct._SPI_plan, ptr %42, i32 0, i32 7
  %44 = load i32, ptr %43, align 8
  %45 = icmp sgt i32 %44, 0
  br i1 %45, label %46, label %66

46:                                               ; preds = %16
  %47 = load ptr, ptr %2, align 8
  %48 = getelementptr inbounds nuw %struct._SPI_plan, ptr %47, i32 0, i32 7
  %49 = load i32, ptr %48, align 8
  %50 = sext i32 %49 to i64
  %51 = mul i64 %50, 4
  %52 = call ptr @palloc(i64 noundef %51)
  %53 = load ptr, ptr %3, align 8
  %54 = getelementptr inbounds nuw %struct._SPI_plan, ptr %53, i32 0, i32 8
  store ptr %52, ptr %54, align 8
  %55 = load ptr, ptr %3, align 8
  %56 = getelementptr inbounds nuw %struct._SPI_plan, ptr %55, i32 0, i32 8
  %57 = load ptr, ptr %56, align 8
  %58 = load ptr, ptr %2, align 8
  %59 = getelementptr inbounds nuw %struct._SPI_plan, ptr %58, i32 0, i32 8
  %60 = load ptr, ptr %59, align 8
  %61 = load ptr, ptr %2, align 8
  %62 = getelementptr inbounds nuw %struct._SPI_plan, ptr %61, i32 0, i32 7
  %63 = load i32, ptr %62, align 8
  %64 = sext i32 %63 to i64
  %65 = mul i64 %64, 4
  call void @llvm.memcpy.p0.p0.i64(ptr align 4 %57, ptr align 4 %60, i64 %65, i1 false)
  br label %69

66:                                               ; preds = %16
  %67 = load ptr, ptr %3, align 8
  %68 = getelementptr inbounds nuw %struct._SPI_plan, ptr %67, i32 0, i32 8
  store ptr null, ptr %68, align 8
  br label %69

69:                                               ; preds = %66, %46
  %70 = load ptr, ptr %2, align 8
  %71 = getelementptr inbounds nuw %struct._SPI_plan, ptr %70, i32 0, i32 9
  %72 = load ptr, ptr %71, align 8
  %73 = load ptr, ptr %3, align 8
  %74 = getelementptr inbounds nuw %struct._SPI_plan, ptr %73, i32 0, i32 9
  store ptr %72, ptr %74, align 8
  %75 = load ptr, ptr %2, align 8
  %76 = getelementptr inbounds nuw %struct._SPI_plan, ptr %75, i32 0, i32 10
  %77 = load ptr, ptr %76, align 8
  %78 = load ptr, ptr %3, align 8
  %79 = getelementptr inbounds nuw %struct._SPI_plan, ptr %78, i32 0, i32 10
  store ptr %77, ptr %79, align 8
  call void @llvm.lifetime.start.p0(i64 16, ptr %9) #9
  %80 = getelementptr inbounds nuw %struct.ForEachState, ptr %9, i32 0, i32 0
  %81 = load ptr, ptr %2, align 8
  %82 = getelementptr inbounds nuw %struct._SPI_plan, ptr %81, i32 0, i32 3
  %83 = load ptr, ptr %82, align 8
  store ptr %83, ptr %80, align 8
  %84 = getelementptr inbounds nuw %struct.ForEachState, ptr %9, i32 0, i32 1
  store i32 0, ptr %84, align 8
  %85 = getelementptr i8, ptr %9, i64 12
  call void @llvm.memset.p0.i64(ptr align 4 %85, i8 0, i64 4, i1 false)
  br label %86

86:                                               ; preds = %124, %69
  %87 = getelementptr inbounds nuw %struct.ForEachState, ptr %9, i32 0, i32 0
  %88 = load ptr, ptr %87, align 8
  %89 = icmp ne ptr %88, null
  br i1 %89, label %90, label %107

90:                                               ; preds = %86
  %91 = getelementptr inbounds nuw %struct.ForEachState, ptr %9, i32 0, i32 1
  %92 = load i32, ptr %91, align 8
  %93 = getelementptr inbounds nuw %struct.ForEachState, ptr %9, i32 0, i32 0
  %94 = load ptr, ptr %93, align 8
  %95 = getelementptr inbounds nuw %struct.List, ptr %94, i32 0, i32 1
  %96 = load i32, ptr %95, align 4
  %97 = icmp slt i32 %92, %96
  br i1 %97, label %98, label %107

98:                                               ; preds = %90
  %99 = getelementptr inbounds nuw %struct.ForEachState, ptr %9, i32 0, i32 0
  %100 = load ptr, ptr %99, align 8
  %101 = getelementptr inbounds nuw %struct.List, ptr %100, i32 0, i32 3
  %102 = load ptr, ptr %101, align 8
  %103 = getelementptr inbounds nuw %struct.ForEachState, ptr %9, i32 0, i32 1
  %104 = load i32, ptr %103, align 8
  %105 = sext i32 %104 to i64
  %106 = getelementptr inbounds %union.ListCell, ptr %102, i64 %105
  store ptr %106, ptr %7, align 8
  br label %108

107:                                              ; preds = %90, %86
  store ptr null, ptr %7, align 8
  br label %108

108:                                              ; preds = %107, %98
  %109 = phi i32 [ 1, %98 ], [ 0, %107 ]
  %110 = icmp ne i32 %109, 0
  br i1 %110, label %112, label %111

111:                                              ; preds = %108
  call void @llvm.lifetime.end.p0(i64 16, ptr %9) #9
  br label %128

112:                                              ; preds = %108
  call void @llvm.lifetime.start.p0(i64 8, ptr %10) #9
  %113 = load ptr, ptr %7, align 8
  %114 = load ptr, ptr %113, align 8
  store ptr %114, ptr %10, align 8
  %115 = load ptr, ptr %10, align 8
  %116 = load ptr, ptr %4, align 8
  call void @CachedPlanSetParentContext(ptr noundef %115, ptr noundef %116)
  %117 = load ptr, ptr %3, align 8
  %118 = getelementptr inbounds nuw %struct._SPI_plan, ptr %117, i32 0, i32 3
  %119 = load ptr, ptr %118, align 8
  %120 = load ptr, ptr %10, align 8
  %121 = call ptr @lappend(ptr noundef %119, ptr noundef %120)
  %122 = load ptr, ptr %3, align 8
  %123 = getelementptr inbounds nuw %struct._SPI_plan, ptr %122, i32 0, i32 3
  store ptr %121, ptr %123, align 8
  call void @llvm.lifetime.end.p0(i64 8, ptr %10) #9
  br label %124

124:                                              ; preds = %112
  %125 = getelementptr inbounds nuw %struct.ForEachState, ptr %9, i32 0, i32 1
  %126 = load i32, ptr %125, align 8
  %127 = add i32 %126, 1
  store i32 %127, ptr %125, align 8
  br label %86, !llvm.loop !15

128:                                              ; preds = %111
  %129 = load ptr, ptr %6, align 8
  %130 = call ptr @MemoryContextSwitchTo(ptr noundef %129)
  %131 = load ptr, ptr %2, align 8
  %132 = getelementptr inbounds nuw %struct._SPI_plan, ptr %131, i32 0, i32 3
  store ptr null, ptr %132, align 8
  %133 = load ptr, ptr %3, align 8
  call void @llvm.lifetime.end.p0(i64 8, ptr %7) #9
  call void @llvm.lifetime.end.p0(i64 8, ptr %6) #9
  call void @llvm.lifetime.end.p0(i64 8, ptr %5) #9
  call void @llvm.lifetime.end.p0(i64 8, ptr %4) #9
  call void @llvm.lifetime.end.p0(i64 8, ptr %3) #9
  ret ptr %133
}