; Function Attrs: nounwind uwtable
define internal fastcc noundef ptr @_SPI_make_plan_non_temp(ptr noundef nonnull captures(none) %0) unnamed_addr #0 {
  %2 = load ptr, ptr @_SPI_current, align 8
  %3 = getelementptr inbounds nuw i8, ptr %2, i64 32
  %4 = load ptr, ptr %3, align 8
  %5 = tail call ptr @AllocSetContextCreateInternal(ptr noundef %4, ptr noundef nonnull @.str.72, i64 noundef 0, i64 noundef 1024, i64 noundef 8192) #15
  %6 = load ptr, ptr @CurrentMemoryContext, align 8
  store ptr %5, ptr @CurrentMemoryContext, align 8
  %7 = tail call ptr @palloc0(i64 noundef 64) #15
  store i32 569278163, ptr %7, align 8
  %8 = getelementptr inbounds nuw i8, ptr %7, i64 16
  store ptr %5, ptr %8, align 8
  %9 = getelementptr inbounds nuw i8, ptr %0, i64 24
  %10 = load i32, ptr %9, align 8
  %11 = getelementptr inbounds nuw i8, ptr %7, i64 24
  store i32 %10, ptr %11, align 8
  %12 = getelementptr inbounds nuw i8, ptr %0, i64 28
  %13 = load i32, ptr %12, align 4
  %14 = getelementptr inbounds nuw i8, ptr %7, i64 28
  store i32 %13, ptr %14, align 4
  %15 = getelementptr inbounds nuw i8, ptr %0, i64 32
  %16 = load i32, ptr %15, align 8
  %17 = getelementptr inbounds nuw i8, ptr %7, i64 32
  store i32 %16, ptr %17, align 8
  %18 = icmp sgt i32 %16, 0
  br i1 %18, label %19, label %29

19:                                               ; preds = %1
  %20 = zext nneg i32 %16 to i64
  %21 = shl nuw nsw i64 %20, 2
  %22 = tail call ptr @palloc(i64 noundef %21) #15
  %23 = getelementptr inbounds nuw i8, ptr %7, i64 40
  store ptr %22, ptr %23, align 8
  %24 = getelementptr inbounds nuw i8, ptr %0, i64 40
  %25 = load ptr, ptr %24, align 8
  %26 = load i32, ptr %15, align 8
  %27 = sext i32 %26 to i64
  %28 = shl nsw i64 %27, 2
  tail call void @llvm.memcpy.p0.p0.i64(ptr align 4 %22, ptr align 4 %25, i64 %28, i1 false)
  br label %31

29:                                               ; preds = %1
  %30 = getelementptr inbounds nuw i8, ptr %7, i64 40
  store ptr null, ptr %30, align 8
  br label %31

31:                                               ; preds = %29, %19
  %32 = getelementptr inbounds nuw i8, ptr %0, i64 48
  %33 = load ptr, ptr %32, align 8
  %34 = getelementptr inbounds nuw i8, ptr %7, i64 48
  store ptr %33, ptr %34, align 8
  %35 = getelementptr inbounds nuw i8, ptr %0, i64 56
  %36 = load ptr, ptr %35, align 8
  %37 = getelementptr inbounds nuw i8, ptr %7, i64 56
  store ptr %36, ptr %37, align 8
  %38 = getelementptr inbounds nuw i8, ptr %0, i64 8
  %39 = load ptr, ptr %38, align 8
  %40 = getelementptr inbounds nuw i8, ptr %39, i64 4
  %.not = icmp eq ptr %39, null
  br i1 %.not, label %._crit_edge, label %.lr.ph

.lr.ph:                                           ; preds = %31
  %41 = getelementptr inbounds nuw i8, ptr %39, i64 16
  %42 = getelementptr inbounds nuw i8, ptr %7, i64 8
  %43 = load i32, ptr %40, align 4
  %44 = icmp sgt i32 %43, 0
  br i1 %44, label %.lr.ph44, label %._crit_edge

._crit_edge:                                      ; preds = %.lr.ph44, %.lr.ph, %31
  store ptr %6, ptr @CurrentMemoryContext, align 8
  store ptr null, ptr %38, align 8
  ret ptr %7

.lr.ph44:                                         ; preds = %.lr.ph, %.lr.ph44
  %indvars.iv = phi i64 [ %indvars.iv.next, %.lr.ph44 ], [ 0, %.lr.ph ]
  %45 = load ptr, ptr %41, align 8
  %46 = getelementptr inbounds nuw %union.ListCell, ptr %45, i64 %indvars.iv
  %47 = load ptr, ptr %46, align 8
  tail call void @CachedPlanSetParentContext(ptr noundef %47, ptr noundef %4) #15
  %48 = load ptr, ptr %42, align 8
  %49 = tail call ptr @lappend(ptr noundef %48, ptr noundef %47) #15
  store ptr %49, ptr %42, align 8
  %indvars.iv.next = add nuw nsw i64 %indvars.iv, 1
  %50 = load i32, ptr %40, align 4
  %51 = sext i32 %50 to i64
  %52 = icmp slt i64 %indvars.iv.next, %51
  br i1 %52, label %.lr.ph44, label %._crit_edge
}